; Function Attrs: mustprogress uwtable
define dso_local noundef zeroext i1 @_ZN5ImGui13TabItemButtonEPKci(ptr noundef %0, i32 noundef %1) local_unnamed_addr #5 {
  %3 = load ptr, ptr @GImGui, align 8, !tbaa !4
  %4 = getelementptr inbounds nuw i8, ptr %3, i64 4928
  %5 = load ptr, ptr %4, align 8, !tbaa !9
  %6 = getelementptr inbounds nuw i8, ptr %5, i64 207
  %7 = load i8, ptr %6, align 1, !tbaa !151, !range !152, !noundef !153
  %8 = trunc nuw i8 %7 to i1
  br i1 %8, label %18, label %9

9:                                                ; preds = %2
  %10 = getelementptr inbounds nuw i8, ptr %3, i64 8640
  %11 = load ptr, ptr %10, align 8, !tbaa !731
  %12 = icmp eq ptr %11, null
  br i1 %12, label %13, label %15

13:                                               ; preds = %9
  %14 = tail call noundef zeroext i1 @_ZN5ImGui8ErrorLogEPKc(ptr noundef nonnull @.str.123)
  br label %18

15:                                               ; preds = %9
  %16 = or i32 %1, 2097184
  %17 = tail call noundef zeroext i1 @_ZN5ImGui9TabItemExEP11ImGuiTabBarPKcPbiP11ImGuiWindow(ptr noundef nonnull %11, ptr noundef %0, ptr noundef null, i32 noundef %16, ptr noundef null)
  br label %18

18:                                               ; preds = %13, %15, %2
  %.0 = phi i1 [ false, %2 ], [ false, %13 ], [ %17, %15 ]
  ret i1 %.0
}